target datalayout = "e-m:e-p270:32:32-p271:32:32-p272:64:64-i64:64-i128:128-f80:128-n8:16:32:64-S128"
target triple = "x86_64-pc-linux-gnu"

%struct.rb_data_type_struct = type { ptr, %struct.anon.4, ptr, ptr, i64 }
%struct.anon.4 = type { ptr, ptr, ptr, ptr, [1 x ptr] }
%struct.sockaddr_in6 = type { i16, i16, i32, %struct.in6_addr, i32 }
%struct.in6_addr = type { %union.anon.3 }
%union.anon.3 = type { [4 x i32] }
%struct.sockaddr = type { i16, [14 x i8] }
%struct.rb_addrinfo_t = type { i64, i64, i32, i32, i32, i32, %union.union_sockaddr }
%union.union_sockaddr = type { %struct.sockaddr_storage, [1920 x i8] }
%struct.sockaddr_storage = type { i16, [118 x i8], i64 }

@addrinfo_type = internal constant %struct.rb_data_type_struct { ptr @.str.102, %struct.anon.4 { ptr @addrinfo_mark, ptr inttoptr (i64 -1 to ptr), ptr @addrinfo_memsize, ptr null, [1 x ptr] zeroinitializer }, ptr null, ptr null, i64 0 }, align 8
@rb_eTypeError = external global i64, align 8
@.str.101 = private unnamed_addr constant [29 x i8] c"uninitialized socket address\00", align 1

; Function Attrs: nounwind sspstrong uwtable
define internal i32 @get_afamily(ptr noundef %0, i32 noundef %1) #0 {
  %3 = alloca i32, align 4
  %4 = alloca ptr, align 8
  %5 = alloca i32, align 4
  store ptr %0, ptr %4, align 8, !tbaa !29
  store i32 %1, ptr %5, align 4, !tbaa !27
  %6 = load ptr, ptr %4, align 8, !tbaa !29
  %7 = getelementptr inbounds nuw %struct.sockaddr, ptr %6, i32 0, i32 0
  %8 = getelementptr inbounds nuw i8, ptr %7, i64 2
  %9 = load ptr, ptr %4, align 8, !tbaa !29
  %10 = ptrtoint ptr %8 to i64
  %11 = ptrtoint ptr %9 to i64
  %12 = sub i64 %10, %11
  %13 = trunc i64 %12 to i32
  %14 = load i32, ptr %5, align 4, !tbaa !27
  %15 = icmp ule i32 %13, %14
  br i1 %15, label %16, label %21

16:                                               ; preds = %2
  %17 = load ptr, ptr %4, align 8, !tbaa !29
  %18 = getelementptr inbounds nuw %struct.sockaddr, ptr %17, i32 0, i32 0
  %19 = load i16, ptr %18, align 2, !tbaa !96
  %20 = zext i16 %19 to i32
  store i32 %20, ptr %3, align 4
  br label %22

21:                                               ; preds = %2
  store i32 0, ptr %3, align 4
  br label %22

22:                                               ; preds = %21, %16
  %23 = load i32, ptr %3, align 4
  ret i32 %23
}

; Function Attrs: inlinehint nounwind sspstrong uwtable
define internal ptr @check_addrinfo(i64 noundef %0) #5 {
  %2 = alloca i64, align 8
  store i64 %0, ptr %2, align 8, !tbaa !31
  %3 = load i64, ptr %2, align 8, !tbaa !31
  %4 = call ptr @rb_check_typeddata(i64 noundef %3, ptr noundef @addrinfo_type)
  ret ptr %4
}

; Function Attrs: nounwind sspstrong uwtable
define internal i32 @ai_get_afamily(ptr noundef %0) #0 {
  %2 = alloca ptr, align 8
  store ptr %0, ptr %2, align 8, !tbaa !26
  %3 = load ptr, ptr %2, align 8, !tbaa !26
  %4 = getelementptr inbounds nuw %struct.rb_addrinfo_t, ptr %3, i32 0, i32 6
  %5 = load ptr, ptr %2, align 8, !tbaa !26
  %6 = getelementptr inbounds nuw %struct.rb_addrinfo_t, ptr %5, i32 0, i32 5
  %7 = load i32, ptr %6, align 4, !tbaa !126
  %8 = call i32 @get_afamily(ptr noundef %4, i32 noundef %7)
  ret i32 %8
}

; Function Attrs: nounwind sspstrong uwtable
define internal ptr @get_addrinfo(i64 noundef %0) #0 {
  %2 = alloca i64, align 8
  %3 = alloca ptr, align 8
  store i64 %0, ptr %2, align 8, !tbaa !31
  call void @llvm.lifetime.start.p0(i64 8, ptr %3) #24
  %4 = load i64, ptr %2, align 8, !tbaa !31
  %5 = call ptr @check_addrinfo(i64 noundef %4)
  store ptr %5, ptr %3, align 8, !tbaa !26
  %6 = load ptr, ptr %3, align 8, !tbaa !26
  %7 = icmp ne ptr %6, null
  br i1 %7, label %10, label %8

8:                                                ; preds = %1
  %9 = load i64, ptr @rb_eTypeError, align 8, !tbaa !31
  call void (i64, ptr, ...) @rb_raise(i64 noundef %9, ptr noundef @.str.101) #27
  unreachable

10:                                               ; preds = %1
  %11 = load ptr, ptr %3, align 8, !tbaa !26
  call void @llvm.lifetime.end.p0(i64 8, ptr %3) #24
  ret ptr %11
}

; Function Attrs: nounwind sspstrong uwtable
define internal ptr @extract_in6_addr(i64 noundef %0) #0 {
  %2 = alloca ptr, align 8
  %3 = alloca i64, align 8
  %4 = alloca ptr, align 8
  %5 = alloca i32, align 4
  %6 = alloca i32, align 4
  store i64 %0, ptr %3, align 8, !tbaa !31
  call void @llvm.lifetime.start.p0(i64 8, ptr %4) #24
  %7 = load i64, ptr %3, align 8, !tbaa !31
  %8 = call ptr @get_addrinfo(i64 noundef %7)
  store ptr %8, ptr %4, align 8, !tbaa !26
  call void @llvm.lifetime.start.p0(i64 4, ptr %5) #24
  %9 = load ptr, ptr %4, align 8, !tbaa !26
  %10 = call i32 @ai_get_afamily(ptr noundef %9)
  store i32 %10, ptr %5, align 4, !tbaa !27
  %11 = load i32, ptr %5, align 4, !tbaa !27
  %12 = icmp ne i32 %11, 10
  br i1 %12, label %13, label %14

13:                                               ; preds = %1
  store ptr null, ptr %2, align 8
  store i32 1, ptr %6, align 4
  br label %18

14:                                               ; preds = %1
  %15 = load ptr, ptr %4, align 8, !tbaa !26
  %16 = getelementptr inbounds nuw %struct.rb_addrinfo_t, ptr %15, i32 0, i32 6
  %17 = getelementptr inbounds nuw %struct.sockaddr_in6, ptr %16, i32 0, i32 3
  store ptr %17, ptr %2, align 8
  store i32 1, ptr %6, align 4
  br label %18

18:                                               ; preds = %14, %13
  call void @llvm.lifetime.end.p0(i64 4, ptr %5) #24
  call void @llvm.lifetime.end.p0(i64 8, ptr %4) #24
  %19 = load ptr, ptr %2, align 8
  ret ptr %19
}

; Function Attrs: nounwind sspstrong uwtable
define internal i64 @addrinfo_ipv6_multicast_p(i64 noundef %0) #0 {
  %2 = alloca i64, align 8
  %3 = alloca i64, align 8
  %4 = alloca ptr, align 8
  %5 = alloca i32, align 4
  store i64 %0, ptr %3, align 8, !tbaa !31
  call void @llvm.lifetime.start.p0(i64 8, ptr %4) #24
  %6 = load i64, ptr %3, align 8, !tbaa !31
  %7 = call ptr @extract_in6_addr(i64 noundef %6)
  store ptr %7, ptr %4, align 8, !tbaa !174
  %8 = load ptr, ptr %4, align 8, !tbaa !174
  %9 = icmp ne ptr %8, null
  br i1 %9, label %10, label %17

10:                                               ; preds = %1
  %11 = load ptr, ptr %4, align 8, !tbaa !174
  %12 = getelementptr inbounds i8, ptr %11, i64 0
  %13 = load i8, ptr %12, align 1, !tbaa !51
  %14 = zext i8 %13 to i32
  %15 = icmp eq i32 %14, 255
  br i1 %15, label %16, label %17

16:                                               ; preds = %10
  store i64 20, ptr %2, align 8
  store i32 1, ptr %5, align 4
  br label %18

17:                                               ; preds = %10, %1
  store i64 0, ptr %2, align 8
  store i32 1, ptr %5, align 4
  br label %18

18:                                               ; preds = %17, %16
  call void @llvm.lifetime.end.p0(i64 8, ptr %4) #24
  %19 = load i64, ptr %2, align 8
  ret i64 %19
}